target datalayout = "e-m:e-p270:32:32-p271:32:32-p272:64:64-i64:64-i128:128-f80:128-n8:16:32:64-S128"
target triple = "x86_64-pc-linux-gnu"

%struct.jpeg_decompress_struct = type { ptr, ptr, ptr, ptr, i32, i32, ptr, i32, i32, i32, i32, i32, i32, i32, double, i32, i32, i32, i32, i32, i32, i32, i32, i32, i32, i32, i32, i32, i32, i32, i32, i32, i32, ptr, i32, i32, i32, i32, i32, ptr, [4 x ptr], [4 x ptr], [4 x ptr], i32, ptr, i32, i32, [16 x i8], [16 x i8], [16 x i8], i32, i32, i8, i8, i8, i16, i16, i32, i8, i32, ptr, i32, i32, i32, i32, ptr, i32, [4 x ptr], i32, i32, i32, [10 x i32], i32, i32, i32, i32, i32, ptr, ptr, ptr, ptr, ptr, ptr, ptr, ptr, ptr, ptr, ptr }

; Function Attrs: nounwind uwtable
define internal void @gray_rgb_convert(ptr noundef %0, ptr noundef %1, i32 noundef %2, ptr noundef %3, i32 noundef %4) #0 {
  %6 = alloca ptr, align 8
  %7 = alloca ptr, align 8
  %8 = alloca i32, align 4
  %9 = alloca ptr, align 8
  %10 = alloca i32, align 4
  %11 = alloca ptr, align 8
  %12 = alloca ptr, align 8
  %13 = alloca i32, align 4
  %14 = alloca i32, align 4
  store ptr %0, ptr %6, align 8
  store ptr %1, ptr %7, align 8
  store i32 %2, ptr %8, align 4
  store ptr %3, ptr %9, align 8
  store i32 %4, ptr %10, align 4
  %15 = load ptr, ptr %6, align 8
  %16 = getelementptr inbounds %struct.jpeg_decompress_struct, ptr %15, i32 0, i32 27
  %17 = load i32, ptr %16, align 8
  store i32 %17, ptr %14, align 4
  br label %18

18:                                               ; preds = %55, %5
  %19 = load i32, ptr %10, align 4
  %20 = add nsw i32 %19, -1
  store i32 %20, ptr %10, align 4
  %21 = icmp sge i32 %20, 0
  br i1 %21, label %22, label %56

22:                                               ; preds = %18
  %23 = load ptr, ptr %7, align 8
  %24 = getelementptr inbounds ptr, ptr %23, i64 0
  %25 = load ptr, ptr %24, align 8
  %26 = load i32, ptr %8, align 4
  %27 = add i32 %26, 1
  store i32 %27, ptr %8, align 4
  %28 = zext i32 %26 to i64
  %29 = getelementptr inbounds ptr, ptr %25, i64 %28
  %30 = load ptr, ptr %29, align 8
  store ptr %30, ptr %11, align 8
  %31 = load ptr, ptr %9, align 8
  %32 = getelementptr inbounds ptr, ptr %31, i32 1
  store ptr %32, ptr %9, align 8
  %33 = load ptr, ptr %31, align 8
  store ptr %33, ptr %12, align 8
  store i32 0, ptr %13, align 4
  br label %34

34:                                               ; preds = %52, %22
  %35 = load i32, ptr %13, align 4
  %36 = load i32, ptr %14, align 4
  %37 = icmp ult i32 %35, %36
  br i1 %37, label %38, label %55

38:                                               ; preds = %34
  %39 = load ptr, ptr %11, align 8
  %40 = load i32, ptr %13, align 4
  %41 = zext i32 %40 to i64
  %42 = getelementptr inbounds i8, ptr %39, i64 %41
  %43 = load i8, ptr %42, align 1
  %44 = load ptr, ptr %12, align 8
  %45 = getelementptr inbounds i8, ptr %44, i64 2
  store i8 %43, ptr %45, align 1
  %46 = load ptr, ptr %12, align 8
  %47 = getelementptr inbounds i8, ptr %46, i64 1
  store i8 %43, ptr %47, align 1
  %48 = load ptr, ptr %12, align 8
  %49 = getelementptr inbounds i8, ptr %48, i64 0
  store i8 %43, ptr %49, align 1
  %50 = load ptr, ptr %12, align 8
  %51 = getelementptr inbounds i8, ptr %50, i64 3
  store ptr %51, ptr %12, align 8
  br label %52

52:                                               ; preds = %38
  %53 = load i32, ptr %13, align 4
  %54 = add i32 %53, 1
  store i32 %54, ptr %13, align 4
  br label %34, !llvm.loop !11

55:                                               ; preds = %34
  br label %18, !llvm.loop !12

56:                                               ; preds = %18
  ret void
}