; Function Attrs: nofree norecurse nosync nounwind memory(readwrite, inaccessiblemem: none) uwtable
define internal void @gray_rgb_convert(ptr nocapture noundef readonly %0, ptr nocapture noundef readonly %1, i32 noundef %2, ptr nocapture noundef readonly %3, i32 noundef %4) #2 {
  %6 = getelementptr inbounds i8, ptr %0, i64 136
  %7 = load i32, ptr %6, align 8
  %8 = icmp slt i32 %4, 1
  %.not = icmp eq i32 %7, 0
  %or.cond = select i1 %8, i1 true, i1 %.not
  br i1 %or.cond, label %._crit_edge, label %.lr.ph.us.preheader

.lr.ph.us.preheader:                              ; preds = %5
  %wide.trip.count = zext i32 %7 to i64
  br label %.lr.ph.us

.lr.ph.us:                                        ; preds = %.lr.ph.us.preheader, %..loopexit_crit_edge.us
  %.in = phi i32 [ %9, %..loopexit_crit_edge.us ], [ %4, %.lr.ph.us.preheader ]
  %.021.us = phi i32 [ %21, %..loopexit_crit_edge.us ], [ %2, %.lr.ph.us.preheader ]
  %.01520.us = phi ptr [ %22, %..loopexit_crit_edge.us ], [ %3, %.lr.ph.us.preheader ]
  %9 = add nsw i32 %.in, -1
  %10 = load ptr, ptr %1, align 8
  %11 = zext i32 %.021.us to i64
  %12 = getelementptr inbounds ptr, ptr %10, i64 %11
  %13 = load ptr, ptr %12, align 8
  %14 = load ptr, ptr %.01520.us, align 8
  br label %15

15:                                               ; preds = %.lr.ph.us, %15
  %indvars.iv = phi i64 [ 0, %.lr.ph.us ], [ %indvars.iv.next, %15 ]
  %.01418.us = phi ptr [ %14, %.lr.ph.us ], [ %20, %15 ]
  %16 = getelementptr inbounds i8, ptr %13, i64 %indvars.iv
  %17 = load i8, ptr %16, align 1
  %18 = getelementptr inbounds i8, ptr %.01418.us, i64 2
  store i8 %17, ptr %18, align 1
  %19 = getelementptr inbounds i8, ptr %.01418.us, i64 1
  store i8 %17, ptr %19, align 1
  store i8 %17, ptr %.01418.us, align 1
  %20 = getelementptr inbounds i8, ptr %.01418.us, i64 3
  %indvars.iv.next = add nuw nsw i64 %indvars.iv, 1
  %exitcond.not = icmp eq i64 %indvars.iv.next, %wide.trip.count
  br i1 %exitcond.not, label %..loopexit_crit_edge.us, label %15, !llvm.loop !11

..loopexit_crit_edge.us:                          ; preds = %15
  %21 = add i32 %.021.us, 1
  %22 = getelementptr inbounds i8, ptr %.01520.us, i64 8
  %23 = icmp sgt i32 %.in, 1
  br i1 %23, label %.lr.ph.us, label %._crit_edge, !llvm.loop !12

._crit_edge:                                      ; preds = %..loopexit_crit_edge.us, %5
  ret void
}